target datalayout = "e-m:e-p270:32:32-p271:32:32-p272:64:64-i64:64-i128:128-f80:128-n8:16:32:64-S128"
target triple = "x86_64-unknown-linux-gnu"

%struct.MonitorHMP = type { %struct.Monitor, i8, ptr }
%struct.Monitor = type { %struct.CharBackend, i32, i8, i8, i8, ptr, %union.anon, %struct.QemuMutex, %struct.anon, ptr, i32, i32, i32 }
%struct.CharBackend = type { ptr, ptr, ptr, ptr, ptr, ptr, i32, i32 }
%union.anon = type { %struct.QTailQLink }
%struct.QTailQLink = type { ptr, ptr }
%struct.QemuMutex = type { %union.pthread_mutex_t, i8 }
%union.pthread_mutex_t = type { %struct.__pthread_mutex_s }
%struct.__pthread_mutex_s = type { i32, i32, i32, i32, i32, i16, i16, %struct.__pthread_internal_list }
%struct.__pthread_internal_list = type { ptr, ptr }
%struct.anon = type { ptr }

@.str = private unnamed_addr constant [8 x i8] c"(qemu) \00", align 1

; Function Attrs: nounwind sspstrong uwtable
define dso_local void @monitor_read_command(ptr noundef %mon, i32 noundef %show_prompt) #0 {
entry:
  %mon.addr = alloca ptr, align 8
  %show_prompt.addr = alloca i32, align 4
  store ptr %mon, ptr %mon.addr, align 8
  store i32 %show_prompt, ptr %show_prompt.addr, align 4
  %0 = load ptr, ptr %mon.addr, align 8
  %rs = getelementptr inbounds %struct.MonitorHMP, ptr %0, i32 0, i32 2
  %1 = load ptr, ptr %rs, align 8
  %tobool = icmp ne ptr %1, null
  br i1 %tobool, label %if.end, label %if.then

if.then:                                          ; preds = %entry
  br label %if.end5

if.end:                                           ; preds = %entry
  %2 = load ptr, ptr %mon.addr, align 8
  %rs1 = getelementptr inbounds %struct.MonitorHMP, ptr %2, i32 0, i32 2
  %3 = load ptr, ptr %rs1, align 8
  call void @readline_start(ptr noundef %3, ptr noundef @.str, i32 noundef 0, ptr noundef @monitor_command_cb, ptr noundef null)
  %4 = load i32, ptr %show_prompt.addr, align 4
  %tobool2 = icmp ne i32 %4, 0
  br i1 %tobool2, label %if.then3, label %if.end5

if.then3:                                         ; preds = %if.end
  %5 = load ptr, ptr %mon.addr, align 8
  %rs4 = getelementptr inbounds %struct.MonitorHMP, ptr %5, i32 0, i32 2
  %6 = load ptr, ptr %rs4, align 8
  call void @readline_show_prompt(ptr noundef %6)
  br label %if.end5

if.end5:                                          ; preds = %if.then3, %if.end, %if.then
  ret void
}