; Function Attrs: nounwind sspstrong uwtable
define dso_local void @monitor_read_command(ptr noundef readonly captures(none) %mon, i32 noundef %show_prompt) local_unnamed_addr #0 {
entry:
  %rs = getelementptr inbounds nuw i8, ptr %mon, i64 176
  %0 = load ptr, ptr %rs, align 8
  %tobool.not = icmp eq ptr %0, null
  br i1 %tobool.not, label %if.end5, label %if.end

if.end:                                           ; preds = %entry
  tail call void @readline_start(ptr noundef nonnull %0, ptr noundef nonnull @.str, i32 noundef 0, ptr noundef nonnull @monitor_command_cb, ptr noundef null) #19
  %tobool2.not = icmp eq i32 %show_prompt, 0
  br i1 %tobool2.not, label %if.end5, label %if.then3

if.then3:                                         ; preds = %if.end
  %1 = load ptr, ptr %rs, align 8
  tail call void @readline_show_prompt(ptr noundef %1) #19
  br label %if.end5

if.end5:                                          ; preds = %entry, %if.then3, %if.end
  ret void
}